target datalayout = "e-m:e-p270:32:32-p271:32:32-p272:64:64-i64:64-i128:128-f80:128-n8:16:32:64-S128"
target triple = "x86_64-pc-linux-gnu"

%struct._spdu_uds_mapping = type { i32, i32, i8, i32, i32 }
%struct.uds_info = type { i32, i32, i8, i8 }

@data_spdu_uds_mappings = internal global ptr null, align 8
@.str.311 = private unnamed_addr constant [29 x i8] c"%s:%u: failed assertion \22%s\22\00", align 1
@.str.312 = private unnamed_addr constant [36 x i8] c"epan/dissectors/packet-signal-pdu.c\00", align 1
@.str.332 = private unnamed_addr constant [9 x i8] c"uds_info\00", align 1

; Function Attrs: null_pointer_is_valid sspstrong uwtable
define internal ptr @get_uds_mapping(ptr noundef %0) #0 {
  %2 = alloca ptr, align 8
  %3 = alloca ptr, align 8
  %4 = alloca i32, align 4
  %5 = alloca i64, align 8
  %6 = alloca ptr, align 8
  %7 = alloca i32, align 4
  store ptr %0, ptr %3, align 8
  call void @llvm.lifetime.start.p0(i64 4, ptr %4) #14
  call void @llvm.lifetime.start.p0(i64 8, ptr %5) #14
  call void @llvm.lifetime.start.p0(i64 8, ptr %6) #14
  %8 = load ptr, ptr %3, align 8
  %9 = icmp ne ptr %8, null
  br i1 %9, label %10, label %11

10:                                               ; preds = %1
  br label %13

11:                                               ; preds = %1
  call void (ptr, ...) @proto_report_dissector_bug(ptr noundef @.str.311, ptr noundef @.str.312, i32 noundef 1877, ptr noundef @.str.332) #18
  unreachable

12:                                               ; No predecessors!
  br label %13

13:                                               ; preds = %12, %10
  %14 = load ptr, ptr @data_spdu_uds_mappings, align 8
  %15 = icmp eq ptr %14, null
  br i1 %15, label %16, label %17

16:                                               ; preds = %13
  store ptr null, ptr %2, align 8
  store i32 1, ptr %7, align 4
  br label %71

17:                                               ; preds = %13
  %18 = load ptr, ptr %3, align 8
  %19 = getelementptr inbounds nuw %struct.uds_info, ptr %18, i32 0, i32 2
  %20 = load i8, ptr %19, align 4, !range !6, !noundef !7
  %21 = trunc i8 %20 to i1
  br i1 %21, label %22, label %29

22:                                               ; preds = %17
  %23 = load ptr, ptr %3, align 8
  %24 = getelementptr inbounds nuw %struct.uds_info, ptr %23, i32 0, i32 3
  %25 = load i8, ptr %24, align 1
  %26 = zext i8 %25 to i32
  %27 = and i32 255, %26
  %28 = or i32 %27, 64
  store i32 %28, ptr %4, align 4
  br label %35

29:                                               ; preds = %17
  %30 = load ptr, ptr %3, align 8
  %31 = getelementptr inbounds nuw %struct.uds_info, ptr %30, i32 0, i32 3
  %32 = load i8, ptr %31, align 1
  %33 = zext i8 %32 to i32
  %34 = and i32 255, %33
  store i32 %34, ptr %4, align 4
  br label %35

35:                                               ; preds = %29, %22
  %36 = load ptr, ptr %3, align 8
  %37 = getelementptr inbounds nuw %struct.uds_info, ptr %36, i32 0, i32 1
  %38 = load i32, ptr %37, align 4
  %39 = zext i32 %38 to i64
  %40 = load ptr, ptr %3, align 8
  %41 = getelementptr inbounds nuw %struct.uds_info, ptr %40, i32 0, i32 0
  %42 = load i32, ptr %41, align 4
  %43 = zext i32 %42 to i64
  %44 = and i64 %43, 65535
  %45 = shl i64 %44, 32
  %46 = or i64 %39, %45
  %47 = load i32, ptr %4, align 4
  %48 = zext i32 %47 to i64
  %49 = shl i64 %48, 48
  %50 = or i64 %46, %49
  store i64 %50, ptr %5, align 8
  %51 = load ptr, ptr @data_spdu_uds_mappings, align 8
  %52 = call ptr @g_hash_table_lookup(ptr noundef %51, ptr noundef %5)
  store ptr %52, ptr %6, align 8
  %53 = load ptr, ptr %6, align 8
  %54 = icmp eq ptr %53, null
  br i1 %54, label %55, label %69

55:                                               ; preds = %35
  %56 = load ptr, ptr %3, align 8
  %57 = getelementptr inbounds nuw %struct.uds_info, ptr %56, i32 0, i32 0
  %58 = load i32, ptr %57, align 4
  %59 = zext i32 %58 to i64
  %60 = and i64 %59, 65535
  %61 = shl i64 %60, 32
  %62 = or i64 4294967295, %61
  %63 = load i32, ptr %4, align 4
  %64 = zext i32 %63 to i64
  %65 = shl i64 %64, 48
  %66 = or i64 %62, %65
  store i64 %66, ptr %5, align 8
  %67 = load ptr, ptr @data_spdu_uds_mappings, align 8
  %68 = call ptr @g_hash_table_lookup(ptr noundef %67, ptr noundef %5)
  store ptr %68, ptr %6, align 8
  br label %69

69:                                               ; preds = %55, %35
  %70 = load ptr, ptr %6, align 8
  store ptr %70, ptr %2, align 8
  store i32 1, ptr %7, align 4
  br label %71

71:                                               ; preds = %69, %16
  call void @llvm.lifetime.end.p0(i64 8, ptr %6) #14
  call void @llvm.lifetime.end.p0(i64 8, ptr %5) #14
  call void @llvm.lifetime.end.p0(i64 4, ptr %4) #14
  %72 = load ptr, ptr %2, align 8
  ret ptr %72
}

; Function Attrs: null_pointer_is_valid sspstrong uwtable
define internal zeroext i1 @dissect_spdu_message_uds_heur(ptr noundef %0, ptr noundef %1, ptr noundef %2, ptr noundef %3) #0 {
  %5 = alloca i1, align 1
  %6 = alloca ptr, align 8
  %7 = alloca ptr, align 8
  %8 = alloca ptr, align 8
  %9 = alloca ptr, align 8
  %10 = alloca ptr, align 8
  %11 = alloca ptr, align 8
  %12 = alloca i32, align 4
  store ptr %0, ptr %6, align 8
  store ptr %1, ptr %7, align 8
  store ptr %2, ptr %8, align 8
  store ptr %3, ptr %9, align 8
  call void @llvm.lifetime.start.p0(i64 8, ptr %10) #14
  %13 = load ptr, ptr %9, align 8
  store ptr %13, ptr %10, align 8
  %14 = load ptr, ptr %10, align 8
  %15 = icmp ne ptr %14, null
  br i1 %15, label %16, label %17

16:                                               ; preds = %4
  br label %19

17:                                               ; preds = %4
  call void (ptr, ...) @proto_report_dissector_bug(ptr noundef @.str.311, ptr noundef @.str.312, i32 noundef 2588, ptr noundef @.str.332) #18
  unreachable

18:                                               ; No predecessors!
  br label %19

19:                                               ; preds = %18, %16
  call void @llvm.lifetime.start.p0(i64 8, ptr %11) #14
  %20 = load ptr, ptr %10, align 8
  %21 = call ptr @get_uds_mapping(ptr noundef %20)
  store ptr %21, ptr %11, align 8
  %22 = load ptr, ptr %11, align 8
  %23 = icmp eq ptr %22, null
  br i1 %23, label %24, label %25

24:                                               ; preds = %19
  store i1 false, ptr %5, align 1
  store i32 1, ptr %12, align 4
  br label %34

25:                                               ; preds = %19
  %26 = load ptr, ptr %6, align 8
  %27 = load ptr, ptr %7, align 8
  %28 = load ptr, ptr %8, align 8
  %29 = load ptr, ptr %11, align 8
  %30 = getelementptr inbounds nuw %struct._spdu_uds_mapping, ptr %29, i32 0, i32 4
  %31 = load i32, ptr %30, align 4
  %32 = call i32 @dissect_spdu_payload(ptr noundef %26, ptr noundef %27, ptr noundef %28, i32 noundef %31, i1 noundef zeroext false)
  %33 = icmp ne i32 %32, 0
  store i1 %33, ptr %5, align 1
  store i32 1, ptr %12, align 4
  br label %34

34:                                               ; preds = %25, %24
  call void @llvm.lifetime.end.p0(i64 8, ptr %11) #14
  call void @llvm.lifetime.end.p0(i64 8, ptr %10) #14
  %35 = load i1, ptr %5, align 1
  ret i1 %35
}