; Function Attrs: null_pointer_is_valid sspstrong uwtable
define internal zeroext i1 @dissect_spdu_message_uds_heur(ptr noundef %0, ptr noundef %1, ptr noundef %2, ptr noundef readonly captures(address_is_null) %3) #0 {
  %5 = alloca i64, align 8
  %.not = icmp eq ptr %3, null
  br i1 %.not, label %6, label %7

6:                                                ; preds = %4
  tail call void (ptr, ...) @proto_report_dissector_bug(ptr noundef nonnull @.str.311, ptr noundef nonnull @.str.312, i32 noundef 2588, ptr noundef nonnull @.str.332) #20
  unreachable

7:                                                ; preds = %4
  call void @llvm.lifetime.start.p0(i64 8, ptr nonnull %5) #16
  %8 = load ptr, ptr @data_spdu_uds_mappings, align 8
  %9 = icmp eq ptr %8, null
  br i1 %9, label %get_uds_mapping.exit.thread, label %10

get_uds_mapping.exit.thread:                      ; preds = %7
  call void @llvm.lifetime.end.p0(i64 8, ptr nonnull %5) #16
  br label %44

10:                                               ; preds = %7
  %11 = getelementptr inbounds nuw i8, ptr %3, i64 8
  %12 = load i8, ptr %11, align 4, !range !6, !noundef !7
  %13 = trunc nuw i8 %12 to i1
  %14 = getelementptr inbounds nuw i8, ptr %3, i64 9
  %15 = load i8, ptr %14, align 1
  %16 = or i8 %15, 64
  %.011.in.i = select i1 %13, i8 %16, i8 %15
  %17 = getelementptr inbounds nuw i8, ptr %3, i64 4
  %18 = load i32, ptr %17, align 4
  %19 = zext i32 %18 to i64
  %20 = load i32, ptr %3, align 4
  %21 = and i32 %20, 65535
  %22 = zext nneg i32 %21 to i64
  %23 = shl nuw nsw i64 %22, 32
  %24 = or disjoint i64 %23, %19
  %25 = zext i8 %.011.in.i to i64
  %26 = shl nuw nsw i64 %25, 48
  %27 = or disjoint i64 %24, %26
  store i64 %27, ptr %5, align 8
  %28 = call ptr @g_hash_table_lookup(ptr noundef nonnull %8, ptr noundef nonnull %5)
  %29 = icmp eq ptr %28, null
  br i1 %29, label %get_uds_mapping.exit, label %get_uds_mapping.exit.thread12

get_uds_mapping.exit.thread12:                    ; preds = %10
  call void @llvm.lifetime.end.p0(i64 8, ptr nonnull %5) #16
  br label %39

get_uds_mapping.exit:                             ; preds = %10
  %30 = load i32, ptr %3, align 4
  %31 = and i32 %30, 65535
  %32 = zext nneg i32 %31 to i64
  %33 = shl nuw nsw i64 %32, 32
  %34 = or disjoint i64 %33, %26
  %35 = or disjoint i64 %34, 4294967295
  store i64 %35, ptr %5, align 8
  %36 = load ptr, ptr @data_spdu_uds_mappings, align 8
  %37 = call ptr @g_hash_table_lookup(ptr noundef %36, ptr noundef nonnull %5)
  call void @llvm.lifetime.end.p0(i64 8, ptr nonnull %5) #16
  %38 = icmp eq ptr %37, null
  br i1 %38, label %44, label %39

39:                                               ; preds = %get_uds_mapping.exit.thread12, %get_uds_mapping.exit
  %.012.i14 = phi ptr [ %28, %get_uds_mapping.exit.thread12 ], [ %37, %get_uds_mapping.exit ]
  %40 = getelementptr inbounds nuw i8, ptr %.012.i14, i64 16
  %41 = load i32, ptr %40, align 4
  %42 = call fastcc i32 @dissect_spdu_payload(ptr noundef %0, ptr noundef %1, ptr noundef %2, i32 noundef %41, i1 noundef zeroext false)
  %43 = icmp ne i32 %42, 0
  br label %44

44:                                               ; preds = %get_uds_mapping.exit.thread, %get_uds_mapping.exit, %39
  %.0 = phi i1 [ %43, %39 ], [ false, %get_uds_mapping.exit ], [ false, %get_uds_mapping.exit.thread ]
  ret i1 %.0
}